target datalayout = "e-m:e-p270:32:32-p271:32:32-p272:64:64-i64:64-i128:128-f80:128-n8:16:32:64-S128"
target triple = "x86_64-pc-linux-gnu"

%struct.magic_set = type { [2 x ptr], %struct.cont, %struct.out, i32, i32, i32, i32, i32, ptr, i64, i32, %struct.anon, %union.VALUETYPE, i16, i16, i16, i16, i16, i16, i64, i64, i64 }
%struct.cont = type { i64, ptr }
%struct.out = type { ptr, i64, ptr }
%struct.anon = type { ptr, i64, i64, i64 }
%union.VALUETYPE = type { [2 x i64], [112 x i8] }

@.str.12 = private unnamed_addr constant [15 x i8] c"application/%s\00", align 1
@.str.13 = private unnamed_addr constant [13 x i8] c"octet-stream\00", align 1
@.str.14 = private unnamed_addr constant [8 x i8] c"x-empty\00", align 1
@.str.15 = private unnamed_addr constant [9 x i8] c"UNKNUNKN\00", align 1
@.str.16 = private unnamed_addr constant [4 x i8] c"???\00", align 1

; Function Attrs: nounwind uwtable
define hidden i32 @file_default(ptr noundef %0, i64 noundef %1) #0 {
  %3 = alloca i32, align 4
  %4 = alloca ptr, align 8
  %5 = alloca i64, align 8
  store ptr %0, ptr %4, align 8
  store i64 %1, ptr %5, align 8
  %6 = load ptr, ptr %4, align 8
  %7 = getelementptr inbounds %struct.magic_set, ptr %6, i32 0, i32 6
  %8 = load i32, ptr %7, align 4
  %9 = and i32 %8, 1040
  %10 = icmp ne i32 %9, 0
  br i1 %10, label %11, label %26

11:                                               ; preds = %2
  %12 = load ptr, ptr %4, align 8
  %13 = getelementptr inbounds %struct.magic_set, ptr %12, i32 0, i32 6
  %14 = load i32, ptr %13, align 4
  %15 = and i32 %14, 16
  %16 = icmp ne i32 %15, 0
  br i1 %16, label %17, label %25

17:                                               ; preds = %11
  %18 = load ptr, ptr %4, align 8
  %19 = load i64, ptr %5, align 8
  %20 = icmp ne i64 %19, 0
  %21 = select i1 %20, ptr @.str.13, ptr @.str.14
  %22 = call i32 (ptr, ptr, ...) @file_printf(ptr noundef %18, ptr noundef @.str.12, ptr noundef %21)
  %23 = icmp eq i32 %22, -1
  br i1 %23, label %24, label %25

24:                                               ; preds = %17
  store i32 -1, ptr %3, align 4
  br label %51

25:                                               ; preds = %17, %11
  store i32 1, ptr %3, align 4
  br label %51

26:                                               ; preds = %2
  %27 = load ptr, ptr %4, align 8
  %28 = getelementptr inbounds %struct.magic_set, ptr %27, i32 0, i32 6
  %29 = load i32, ptr %28, align 4
  %30 = and i32 %29, 2048
  %31 = icmp ne i32 %30, 0
  br i1 %31, label %32, label %38

32:                                               ; preds = %26
  %33 = load ptr, ptr %4, align 8
  %34 = call i32 (ptr, ptr, ...) @file_printf(ptr noundef %33, ptr noundef @.str.15)
  %35 = icmp eq i32 %34, -1
  br i1 %35, label %36, label %37

36:                                               ; preds = %32
  store i32 -1, ptr %3, align 4
  br label %51

37:                                               ; preds = %32
  store i32 1, ptr %3, align 4
  br label %51

38:                                               ; preds = %26
  %39 = load ptr, ptr %4, align 8
  %40 = getelementptr inbounds %struct.magic_set, ptr %39, i32 0, i32 6
  %41 = load i32, ptr %40, align 4
  %42 = and i32 %41, 16777216
  %43 = icmp ne i32 %42, 0
  br i1 %43, label %44, label %50

44:                                               ; preds = %38
  %45 = load ptr, ptr %4, align 8
  %46 = call i32 (ptr, ptr, ...) @file_printf(ptr noundef %45, ptr noundef @.str.16)
  %47 = icmp eq i32 %46, -1
  br i1 %47, label %48, label %49

48:                                               ; preds = %44
  store i32 -1, ptr %3, align 4
  br label %51

49:                                               ; preds = %44
  store i32 1, ptr %3, align 4
  br label %51

50:                                               ; preds = %38
  store i32 0, ptr %3, align 4
  br label %51

51:                                               ; preds = %50, %49, %48, %37, %36, %25, %24
  %52 = load i32, ptr %3, align 4
  ret i32 %52
}