; Function Attrs: nounwind uwtable
define hidden noundef i32 @file_default(ptr nocapture noundef %0, i64 noundef %1) local_unnamed_addr #2 {
  %3 = getelementptr inbounds i8, ptr %0, i64 68
  %4 = load i32, ptr %3, align 4
  %5 = and i32 %4, 1040
  %.not = icmp eq i32 %5, 0
  br i1 %.not, label %13, label %6

6:                                                ; preds = %2
  %7 = and i32 %4, 16
  %.not10 = icmp eq i32 %7, 0
  br i1 %.not10, label %12, label %8

8:                                                ; preds = %6
  %.not11 = icmp eq i64 %1, 0
  %9 = select i1 %.not11, ptr @.str.14, ptr @.str.13
  %10 = tail call i32 (ptr, ptr, ...) @file_printf(ptr noundef nonnull %0, ptr noundef nonnull @.str.12, ptr noundef nonnull %9), !range !4
  %11 = icmp eq i32 %10, -1
  br i1 %11, label %23, label %12

12:                                               ; preds = %8, %6
  br label %23

13:                                               ; preds = %2
  %14 = and i32 %4, 2048
  %.not8 = icmp eq i32 %14, 0
  br i1 %.not8, label %18, label %15

15:                                               ; preds = %13
  %16 = tail call i32 (ptr, ptr, ...) @file_printf(ptr noundef nonnull %0, ptr noundef nonnull @.str.15), !range !4
  %17 = icmp eq i32 %16, -1
  %. = select i1 %17, i32 -1, i32 1
  br label %23

18:                                               ; preds = %13
  %19 = and i32 %4, 16777216
  %.not9 = icmp eq i32 %19, 0
  br i1 %.not9, label %23, label %20

20:                                               ; preds = %18
  %21 = tail call i32 (ptr, ptr, ...) @file_printf(ptr noundef nonnull %0, ptr noundef nonnull @.str.16), !range !4
  %22 = icmp eq i32 %21, -1
  %.12 = select i1 %22, i32 -1, i32 1
  br label %23

23:                                               ; preds = %18, %20, %15, %8, %12
  %.0 = phi i32 [ 1, %12 ], [ -1, %8 ], [ %., %15 ], [ %.12, %20 ], [ 0, %18 ]
  ret i32 %.0
}